; Function Attrs: mustprogress nounwind uwtable
define dso_local { ptr, i64 } @_ZNK4llvm6Triple18getEnvironmentNameEv(ptr noundef nonnull align 8 dereferenceable(56) %0) local_unnamed_addr #4 align 2 {
  %2 = alloca i8, align 1
  %3 = alloca i8, align 1
  %4 = alloca i8, align 1
  %5 = alloca %"class.llvm::StringRef", align 8
  %6 = alloca %"class.llvm::StringRef", align 8
  %7 = tail call noundef ptr @_ZNKSt7__cxx1112basic_stringIcSt11char_traitsIcESaIcEE4dataEv(ptr noundef nonnull align 8 dereferenceable(32) %0) #15
  store ptr %7, ptr %6, align 8
  %8 = getelementptr inbounds i8, ptr %6, i64 8
  %9 = tail call noundef i64 @_ZNKSt7__cxx1112basic_stringIcSt11char_traitsIcESaIcEE6lengthEv(ptr noundef nonnull align 8 dereferenceable(32) %0) #15
  store i64 %9, ptr %8, align 8
  call void @llvm.lifetime.start.p0(i64 1, ptr nonnull %4)
  store i8 45, ptr %4, align 1, !noalias !122
  %10 = call noundef i64 @_ZNK4llvm9StringRef4findES0_m(ptr noundef nonnull align 8 dereferenceable(16) %6, ptr nonnull %4, i64 1, i64 noundef 0) #15, !noalias !125
  %11 = icmp eq i64 %10, -1
  br i1 %11, label %_ZNK4llvm9StringRef5splitEc.exit, label %12

12:                                               ; preds = %1
  %13 = load i64, ptr %8, align 8, !noalias !125
  %14 = load ptr, ptr %6, align 8, !noalias !125
  %15 = add nuw i64 %10, 1
  %.sroa.speculated5.i.i.i = call i64 @llvm.umin.i64(i64 %13, i64 %15)
  %16 = getelementptr inbounds i8, ptr %14, i64 %.sroa.speculated5.i.i.i
  %17 = sub i64 %13, %.sroa.speculated5.i.i.i
  br label %_ZNK4llvm9StringRef5splitEc.exit

_ZNK4llvm9StringRef5splitEc.exit:                 ; preds = %1, %12
  %.sroa.318.0 = phi ptr [ %16, %12 ], [ null, %1 ]
  %.sroa.619.0 = phi i64 [ %17, %12 ], [ 0, %1 ]
  call void @llvm.lifetime.end.p0(i64 1, ptr nonnull %4)
  store ptr %.sroa.318.0, ptr %5, align 8
  %.sroa.619.16..sroa_idx = getelementptr inbounds i8, ptr %5, i64 8
  store i64 %.sroa.619.0, ptr %.sroa.619.16..sroa_idx, align 8
  call void @llvm.lifetime.start.p0(i64 1, ptr nonnull %3)
  store i8 45, ptr %3, align 1, !noalias !128
  %18 = call noundef i64 @_ZNK4llvm9StringRef4findES0_m(ptr noundef nonnull align 8 dereferenceable(16) %5, ptr nonnull %3, i64 1, i64 noundef 0) #15, !noalias !131
  %19 = icmp eq i64 %18, -1
  br i1 %19, label %_ZNK4llvm9StringRef5splitEc.exit4, label %20

20:                                               ; preds = %_ZNK4llvm9StringRef5splitEc.exit
  %21 = load i64, ptr %.sroa.619.16..sroa_idx, align 8, !noalias !131
  %22 = load ptr, ptr %5, align 8, !noalias !131
  %23 = add nuw i64 %18, 1
  %.sroa.speculated5.i.i.i1 = call i64 @llvm.umin.i64(i64 %21, i64 %23)
  %24 = getelementptr inbounds i8, ptr %22, i64 %.sroa.speculated5.i.i.i1
  %25 = sub i64 %21, %.sroa.speculated5.i.i.i1
  br label %_ZNK4llvm9StringRef5splitEc.exit4

_ZNK4llvm9StringRef5splitEc.exit4:                ; preds = %_ZNK4llvm9StringRef5splitEc.exit, %20
  %.sroa.314.0 = phi ptr [ %24, %20 ], [ null, %_ZNK4llvm9StringRef5splitEc.exit ]
  %.sroa.615.0 = phi i64 [ %25, %20 ], [ 0, %_ZNK4llvm9StringRef5splitEc.exit ]
  call void @llvm.lifetime.end.p0(i64 1, ptr nonnull %3)
  store ptr %.sroa.314.0, ptr %5, align 8
  store i64 %.sroa.615.0, ptr %.sroa.619.16..sroa_idx, align 8
  call void @llvm.lifetime.start.p0(i64 1, ptr nonnull %2)
  store i8 45, ptr %2, align 1, !noalias !134
  %26 = call noundef i64 @_ZNK4llvm9StringRef4findES0_m(ptr noundef nonnull align 8 dereferenceable(16) %5, ptr nonnull %2, i64 1, i64 noundef 0) #15, !noalias !137
  %27 = icmp eq i64 %26, -1
  br i1 %27, label %_ZNK4llvm9StringRef5splitEc.exit8, label %28

28:                                               ; preds = %_ZNK4llvm9StringRef5splitEc.exit4
  %29 = load i64, ptr %.sroa.619.16..sroa_idx, align 8, !noalias !137
  %30 = load ptr, ptr %5, align 8, !noalias !137
  %31 = add nuw i64 %26, 1
  %.sroa.speculated5.i.i.i5 = call i64 @llvm.umin.i64(i64 %29, i64 %31)
  %32 = getelementptr inbounds i8, ptr %30, i64 %.sroa.speculated5.i.i.i5
  %33 = sub i64 %29, %.sroa.speculated5.i.i.i5
  br label %_ZNK4llvm9StringRef5splitEc.exit8

_ZNK4llvm9StringRef5splitEc.exit8:                ; preds = %_ZNK4llvm9StringRef5splitEc.exit4, %28
  %.sroa.3.0 = phi ptr [ %32, %28 ], [ null, %_ZNK4llvm9StringRef5splitEc.exit4 ]
  %.sroa.6.0 = phi i64 [ %33, %28 ], [ 0, %_ZNK4llvm9StringRef5splitEc.exit4 ]
  call void @llvm.lifetime.end.p0(i64 1, ptr nonnull %2)
  %.fca.0.insert = insertvalue { ptr, i64 } poison, ptr %.sroa.3.0, 0
  %.fca.1.insert = insertvalue { ptr, i64 } %.fca.0.insert, i64 %.sroa.6.0, 1
  ret { ptr, i64 } %.fca.1.insert
}